; Function Attrs: mustprogress uwtable
define hidden noundef ptr @_Z23mk_pb_preprocess_tacticR11ast_managerRK10params_ref(ptr noundef nonnull align 8 dereferenceable(976) %0, ptr noundef nonnull readnone align 8 captures(none) dereferenceable(8) %1) local_unnamed_addr #3 personality ptr @__gxx_personality_v0 {
  %3 = alloca %class.params_ref, align 8
  %4 = tail call noalias noundef ptr @_ZN6memory8allocateEm(i64 noundef 168)
  call void @llvm.lifetime.start.p0(i64 8, ptr nonnull %3) #20
  store ptr null, ptr %3, align 8, !tbaa !3
  invoke void @_ZN20pb_preprocess_tacticC2ER11ast_managerRK10params_ref(ptr noundef nonnull align 8 dereferenceable(168) %4, ptr noundef nonnull align 8 dereferenceable(976) %0, ptr noundef nonnull align 8 dereferenceable(8) %3)
          to label %5 unwind label %6

5:                                                ; preds = %2
  call void @_ZN10params_refD1Ev(ptr noundef nonnull align 8 dereferenceable(8) %3) #20
  call void @llvm.lifetime.end.p0(i64 8, ptr nonnull %3) #20
  ret ptr %4

6:                                                ; preds = %2
  %7 = landingpad { ptr, i32 }
          cleanup
  call void @_ZN10params_refD1Ev(ptr noundef nonnull align 8 dereferenceable(8) %3) #20
  call void @llvm.lifetime.end.p0(i64 8, ptr nonnull %3) #20
  resume { ptr, i32 } %7
}